target datalayout = "e-m:e-p270:32:32-p271:32:32-p272:64:64-i64:64-i128:128-f80:128-n8:16:32:64-S128"
target triple = "x86_64-unknown-linux-gnu"

%"class.std::__cxx11::basic_string" = type { %"struct.std::__cxx11::basic_string<char>::_Alloc_hider", i64, %union.anon }
%"struct.std::__cxx11::basic_string<char>::_Alloc_hider" = type { ptr }
%union.anon = type { i64, [8 x i8] }
%"class.grpc_core::Orphanable" = type { ptr }
%"struct.std::atomic.49" = type { %"struct.std::__atomic_base.50" }
%"struct.std::__atomic_base.50" = type { i64 }
%"struct.std::atomic.67" = type { %"struct.std::__atomic_base.68" }
%"struct.std::__atomic_base.68" = type { i64 }
%"class.grpc_core::XdsClient::ResourceWatcherInterface" = type { %"class.grpc_core::RefCounted" }
%"class.grpc_core::RefCounted" = type { %"class.grpc_core::PolymorphicRefCount", %"class.grpc_core::RefCount" }
%"class.grpc_core::PolymorphicRefCount" = type { ptr }
%"class.grpc_core::RefCount" = type { %"struct.std::atomic.67" }
%"class.grpc_core::DualRefCounted.202" = type { %"class.grpc_core::Orphanable", %"struct.std::atomic.49" }
%"class.grpc_core::XdsResourceTypeImpl<grpc_core::XdsRouteConfigResourceType, grpc_core::XdsRouteConfigResource>::WatcherInterface" = type { %"class.grpc_core::XdsClient::ResourceWatcherInterface" }
%"class.grpc_core::WeakRefCountedPtr" = type { ptr }
%"class.grpc_core::(anonymous namespace)::XdsServerConfigFetcher::ListenerWatcher::FilterChainMatchManager::RouteConfigWatcher" = type { %"class.grpc_core::XdsResourceTypeImpl<grpc_core::XdsRouteConfigResourceType, grpc_core::XdsRouteConfigResource>::WatcherInterface", %"class.std::__cxx11::basic_string", %"class.grpc_core::WeakRefCountedPtr" }

; Function Attrs: mustprogress nounwind uwtable
define linkonce_odr void @_ZN9grpc_core19PolymorphicRefCountD2Ev(ptr noundef nonnull align 8 dereferenceable(8) %this) unnamed_addr #5 comdat align 2 {
entry:
  %this.addr = alloca ptr, align 8
  store ptr %this, ptr %this.addr, align 8
  ret void
}

; Function Attrs: mustprogress nounwind uwtable
define linkonce_odr void @_ZN9grpc_core10RefCountedINS_9XdsClient24ResourceWatcherInterfaceENS_19PolymorphicRefCountENS_11UnrefDeleteEED2Ev(ptr noundef nonnull align 8 dereferenceable(16) %this) unnamed_addr #5 comdat align 2 {
entry:
  %this.addr = alloca ptr, align 8
  store ptr %this, ptr %this.addr, align 8
  %this1 = load ptr, ptr %this.addr, align 8
  call void @_ZN9grpc_core19PolymorphicRefCountD2Ev(ptr noundef nonnull align 8 dereferenceable(8) %this1) #3
  ret void
}

; Function Attrs: mustprogress nounwind uwtable
define linkonce_odr noundef i64 @_ZN9grpc_core14DualRefCountedIN26grpc_server_config_fetcher17ConnectionManagerEE11MakeRefPairEjj(i32 noundef %strong, i32 noundef %weak) #5 comdat align 2 {
entry:
  %strong.addr = alloca i32, align 4
  %weak.addr = alloca i32, align 4
  store i32 %strong, ptr %strong.addr, align 4
  store i32 %weak, ptr %weak.addr, align 4
  %0 = load i32, ptr %strong.addr, align 4
  %conv = zext i32 %0 to i64
  %shl = shl i64 %conv, 32
  %1 = load i32, ptr %weak.addr, align 4
  %conv1 = zext i32 %1 to i64
  %add = add i64 %shl, %conv1
  ret i64 %add
}

; Function Attrs: mustprogress nounwind uwtable
define linkonce_odr void @_ZN9grpc_core9XdsClient24ResourceWatcherInterfaceD2Ev(ptr noundef nonnull align 8 dereferenceable(16) %this) unnamed_addr #5 comdat align 2 {
entry:
  %this.addr = alloca ptr, align 8
  store ptr %this, ptr %this.addr, align 8
  %this1 = load ptr, ptr %this.addr, align 8
  call void @_ZN9grpc_core10RefCountedINS_9XdsClient24ResourceWatcherInterfaceENS_19PolymorphicRefCountENS_11UnrefDeleteEED2Ev(ptr noundef nonnull align 8 dereferenceable(16) %this1) #3
  ret void
}

; Function Attrs: mustprogress nounwind uwtable
define linkonce_odr void @_ZN9grpc_core14DualRefCountedIN26grpc_server_config_fetcher17ConnectionManagerEE9WeakUnrefEv(ptr noundef nonnull align 8 dereferenceable(16) %this) #5 comdat align 2 {
entry:
  %this.addr.i = alloca ptr, align 8
  %__i.addr.i = alloca i64, align 8
  %__m.addr.i = alloca i32, align 4
  %.atomictmp.i = alloca i64, align 8
  %atomic-temp.i = alloca i64, align 8
  %this.addr = alloca ptr, align 8
  %prev_ref_pair = alloca i64, align 8
  store ptr %this, ptr %this.addr, align 8
  %this1 = load ptr, ptr %this.addr, align 8
  %refs_ = getelementptr inbounds %"class.grpc_core::DualRefCounted.202", ptr %this1, i32 0, i32 1
  %call = call noundef i64 @_ZN9grpc_core14DualRefCountedIN26grpc_server_config_fetcher17ConnectionManagerEE11MakeRefPairEjj(i32 noundef 0, i32 noundef 1)
  store ptr %refs_, ptr %this.addr.i, align 8
  store i64 %call, ptr %__i.addr.i, align 8
  store i32 4, ptr %__m.addr.i, align 4
  %this1.i = load ptr, ptr %this.addr.i, align 8
  %0 = load i32, ptr %__m.addr.i, align 4
  %1 = load i64, ptr %__i.addr.i, align 8
  store i64 %1, ptr %.atomictmp.i, align 8
  switch i32 %0, label %monotonic.i [
    i32 1, label %acquire.i
    i32 2, label %acquire.i
    i32 3, label %release.i
    i32 4, label %acqrel.i
    i32 5, label %seqcst.i
  ]

monotonic.i:                                      ; preds = %entry
  %2 = load i64, ptr %.atomictmp.i, align 8
  %3 = atomicrmw sub ptr %this1.i, i64 %2 monotonic, align 8
  store i64 %3, ptr %atomic-temp.i, align 8
  br label %_ZNSt13__atomic_baseImE9fetch_subEmSt12memory_order.exit

acquire.i:                                        ; preds = %entry, %entry
  %4 = load i64, ptr %.atomictmp.i, align 8
  %5 = atomicrmw sub ptr %this1.i, i64 %4 acquire, align 8
  store i64 %5, ptr %atomic-temp.i, align 8
  br label %_ZNSt13__atomic_baseImE9fetch_subEmSt12memory_order.exit

release.i:                                        ; preds = %entry
  %6 = load i64, ptr %.atomictmp.i, align 8
  %7 = atomicrmw sub ptr %this1.i, i64 %6 release, align 8
  store i64 %7, ptr %atomic-temp.i, align 8
  br label %_ZNSt13__atomic_baseImE9fetch_subEmSt12memory_order.exit

acqrel.i:                                         ; preds = %entry
  %8 = load i64, ptr %.atomictmp.i, align 8
  %9 = atomicrmw sub ptr %this1.i, i64 %8 acq_rel, align 8
  store i64 %9, ptr %atomic-temp.i, align 8
  br label %_ZNSt13__atomic_baseImE9fetch_subEmSt12memory_order.exit

seqcst.i:                                         ; preds = %entry
  %10 = load i64, ptr %.atomictmp.i, align 8
  %11 = atomicrmw sub ptr %this1.i, i64 %10 seq_cst, align 8
  store i64 %11, ptr %atomic-temp.i, align 8
  br label %_ZNSt13__atomic_baseImE9fetch_subEmSt12memory_order.exit

_ZNSt13__atomic_baseImE9fetch_subEmSt12memory_order.exit: ; preds = %seqcst.i, %acqrel.i, %release.i, %acquire.i, %monotonic.i
  %12 = load i64, ptr %atomic-temp.i, align 8
  store i64 %12, ptr %prev_ref_pair, align 8
  %13 = load i64, ptr %prev_ref_pair, align 8
  %call3 = call noundef i64 @_ZN9grpc_core14DualRefCountedIN26grpc_server_config_fetcher17ConnectionManagerEE11MakeRefPairEjj(i32 noundef 0, i32 noundef 1)
  %cmp = icmp eq i64 %13, %call3
  br i1 %cmp, label %if.then, label %if.end

if.then:                                          ; preds = %_ZNSt13__atomic_baseImE9fetch_subEmSt12memory_order.exit
  %isnull = icmp eq ptr %this1, null
  br i1 %isnull, label %delete.end, label %delete.notnull

delete.notnull:                                   ; preds = %if.then
  %vtable = load ptr, ptr %this1, align 8
  %vfn = getelementptr inbounds ptr, ptr %vtable, i64 2
  %14 = load ptr, ptr %vfn, align 8
  call void %14(ptr noundef nonnull align 8 dereferenceable(16) %this1) #3
  br label %delete.end

delete.end:                                       ; preds = %delete.notnull, %if.then
  br label %if.end

if.end:                                           ; preds = %delete.end, %_ZNSt13__atomic_baseImE9fetch_subEmSt12memory_order.exit
  ret void
}

; Function Attrs: mustprogress nounwind uwtable
define linkonce_odr void @_ZN9grpc_core19XdsResourceTypeImplINS_26XdsRouteConfigResourceTypeENS_22XdsRouteConfigResourceEE16WatcherInterfaceD2Ev(ptr noundef nonnull align 8 dereferenceable(16) %this) unnamed_addr #5 comdat align 2 {
entry:
  %this.addr = alloca ptr, align 8
  store ptr %this, ptr %this.addr, align 8
  %this1 = load ptr, ptr %this.addr, align 8
  call void @_ZN9grpc_core9XdsClient24ResourceWatcherInterfaceD2Ev(ptr noundef nonnull align 8 dereferenceable(16) %this1) #3
  ret void
}

; Function Attrs: mustprogress nounwind uwtable
define internal void @_ZN9grpc_core17WeakRefCountedPtrINS_12_GLOBAL__N_122XdsServerConfigFetcher15ListenerWatcher23FilterChainMatchManagerEED2Ev(ptr noundef nonnull align 8 dereferenceable(8) %this) unnamed_addr #5 align 2 {
entry:
  %this.addr = alloca ptr, align 8
  store ptr %this, ptr %this.addr, align 8
  %this1 = load ptr, ptr %this.addr, align 8
  %value_ = getelementptr inbounds %"class.grpc_core::WeakRefCountedPtr", ptr %this1, i32 0, i32 0
  %0 = load ptr, ptr %value_, align 8
  %cmp = icmp ne ptr %0, null
  br i1 %cmp, label %if.then, label %if.end

if.then:                                          ; preds = %entry
  %value_2 = getelementptr inbounds %"class.grpc_core::WeakRefCountedPtr", ptr %this1, i32 0, i32 0
  %1 = load ptr, ptr %value_2, align 8
  call void @_ZN9grpc_core14DualRefCountedIN26grpc_server_config_fetcher17ConnectionManagerEE9WeakUnrefEv(ptr noundef nonnull align 8 dereferenceable(16) %1)
  br label %if.end

if.end:                                           ; preds = %if.then, %entry
  ret void
}

; Function Attrs: mustprogress nounwind uwtable
define internal void @_ZN9grpc_core12_GLOBAL__N_122XdsServerConfigFetcher15ListenerWatcher23FilterChainMatchManager18RouteConfigWatcherD2Ev(ptr noundef nonnull align 8 dereferenceable(56) %this) unnamed_addr #5 align 2 {
entry:
  %this.addr = alloca ptr, align 8
  store ptr %this, ptr %this.addr, align 8
  %this1 = load ptr, ptr %this.addr, align 8
  store ptr getelementptr inbounds ({ [8 x ptr] }, ptr @_ZTVN9grpc_core12_GLOBAL__N_122XdsServerConfigFetcher15ListenerWatcher23FilterChainMatchManager18RouteConfigWatcherE, i32 0, i32 0, i32 2), ptr %this1, align 8
  %filter_chain_match_manager_ = getelementptr inbounds %"class.grpc_core::(anonymous namespace)::XdsServerConfigFetcher::ListenerWatcher::FilterChainMatchManager::RouteConfigWatcher", ptr %this1, i32 0, i32 2
  call void @_ZN9grpc_core17WeakRefCountedPtrINS_12_GLOBAL__N_122XdsServerConfigFetcher15ListenerWatcher23FilterChainMatchManagerEED2Ev(ptr noundef nonnull align 8 dereferenceable(8) %filter_chain_match_manager_) #3
  %resource_name_ = getelementptr inbounds %"class.grpc_core::(anonymous namespace)::XdsServerConfigFetcher::ListenerWatcher::FilterChainMatchManager::RouteConfigWatcher", ptr %this1, i32 0, i32 1
  call void @_ZNSt7__cxx1112basic_stringIcSt11char_traitsIcESaIcEED1Ev(ptr noundef nonnull align 8 dereferenceable(32) %resource_name_) #3
  call void @_ZN9grpc_core19XdsResourceTypeImplINS_26XdsRouteConfigResourceTypeENS_22XdsRouteConfigResourceEE16WatcherInterfaceD2Ev(ptr noundef nonnull align 8 dereferenceable(16) %this1) #3
  ret void
}